; Function Attrs: mustprogress uwtable
define internal fastcc noundef i32 @_ZN12_GLOBAL__N_111ReadIntegerIjEET_P8_IO_FILE(ptr nocapture noundef %0) unnamed_addr #4 personality ptr @__gxx_personality_v0 {
  %2 = alloca i32, align 4
  %3 = alloca %"class.std::__cxx11::basic_string", align 8
  %4 = alloca %"class.std::allocator", align 1
  %5 = call i64 @fread(ptr noundef nonnull %2, i64 noundef 4, i64 noundef 1, ptr noundef %0)
  %.not = icmp eq i64 %5, 1
  br i1 %.not, label %14, label %6

6:                                                ; preds = %1
  %7 = tail call ptr @__cxa_allocate_exception(i64 40) #19
  call void @_ZNSaIcEC1Ev(ptr noundef nonnull align 1 dereferenceable(1) %4) #19
  invoke void @_ZNSt7__cxx1112basic_stringIcSt11char_traitsIcESaIcEEC1EPKcRKS3_(ptr noundef nonnull align 8 dereferenceable(32) %3, ptr noundef nonnull @.str.11, ptr noundef nonnull align 1 dereferenceable(1) %4)
          to label %8 unwind label %.thread

8:                                                ; preds = %6
  invoke void @_ZN6opencc13InvalidFormatC2ERKNSt7__cxx1112basic_stringIcSt11char_traitsIcESaIcEEE(ptr noundef nonnull align 8 dereferenceable(40) %7, ptr noundef nonnull align 8 dereferenceable(32) %3)
          to label %9 unwind label %11

9:                                                ; preds = %8
  invoke void @__cxa_throw(ptr nonnull %7, ptr nonnull @_ZTIN6opencc13InvalidFormatE, ptr nonnull @_ZN6opencc13InvalidFormatD2Ev) #20
          to label %17 unwind label %11

.thread:                                          ; preds = %6
  %10 = landingpad { ptr, i32 }
          cleanup
  call void @_ZNSaIcED1Ev(ptr noundef nonnull align 1 dereferenceable(1) %4) #19
  br label %13

11:                                               ; preds = %8, %9
  %.0 = phi i1 [ false, %9 ], [ true, %8 ]
  %12 = landingpad { ptr, i32 }
          cleanup
  call void @_ZNSt7__cxx1112basic_stringIcSt11char_traitsIcESaIcEED1Ev(ptr noundef nonnull align 8 dereferenceable(32) %3) #19
  call void @_ZNSaIcED1Ev(ptr noundef nonnull align 1 dereferenceable(1) %4) #19
  br i1 %.0, label %13, label %16

13:                                               ; preds = %.thread, %11
  %.pn10 = phi { ptr, i32 } [ %10, %.thread ], [ %12, %11 ]
  call void @__cxa_free_exception(ptr %7) #19
  br label %16

14:                                               ; preds = %1
  %15 = load i32, ptr %2, align 4
  ret i32 %15

16:                                               ; preds = %11, %13
  %.pn9 = phi { ptr, i32 } [ %12, %11 ], [ %.pn10, %13 ]
  resume { ptr, i32 } %.pn9

17:                                               ; preds = %9
  unreachable
}